target datalayout = "e-m:e-p270:32:32-p271:32:32-p272:64:64-i64:64-i128:128-f80:128-n8:16:32:64-S128"
target triple = "x86_64-pc-linux-gnu"

%struct.Curl_easy = type { i32, i64, i64, ptr, %struct.Curl_llist_node, %struct.Curl_llist_node, i32, i32, %struct.Curl_message, %struct.easy_pollset, %struct.Names, ptr, ptr, ptr, ptr, %struct.SingleRequest, %struct.UserDefined, ptr, ptr, ptr, %struct.Progress, %struct.UrlState, ptr, %struct.PureInfo, %struct.curl_tlssessioninfo }
%struct.Curl_llist_node = type { ptr, ptr, ptr, ptr }
%struct.Curl_message = type { %struct.Curl_llist_node, %struct.CURLMsg }
%struct.CURLMsg = type { i32, ptr, %union.anon }
%union.anon = type { ptr }
%struct.easy_pollset = type { [5 x i32], i32, [5 x i8] }
%struct.Names = type { ptr, i32 }
%struct.SingleRequest = type <{ i64, i64, i64, i64, %struct.curltime, i32, i32, i32, i32, i64, i32, i32, i8, i8, [2 x i8], i32, ptr, ptr, %struct.bufq, i64, i64, ptr, ptr, %union.anon.0, ptr, i8, i32, [3 x i8] }>
%struct.curltime = type { i64, i32 }
%struct.bufq = type { ptr, ptr, ptr, ptr, i64, i64, i64, i32 }
%union.anon.0 = type { ptr }
%struct.UserDefined = type <{ ptr, ptr, ptr, ptr, ptr, ptr, i64, i64, i64, ptr, ptr, i64, ptr, ptr, ptr, ptr, ptr, ptr, ptr, ptr, ptr, ptr, ptr, ptr, ptr, ptr, ptr, ptr, ptr, ptr, ptr, ptr, ptr, ptr, ptr, i64, i64, i64, i64, i64, i64, i64, i64, i64, ptr, ptr, %struct.curl_mimepart, ptr, ptr, ptr, i64, %struct.ssl_config_data, %struct.ssl_config_data, ptr, i16, i8, i8, %struct.ssl_general_config, i32, i32, i32, [4 x i8], ptr, ptr, i64, i32, i8, i8, i8, i8, ptr, ptr, ptr, i32, [4 x i8], [74 x ptr], [8 x ptr], i32, i32, i32, [4 x i8], ptr, i32, [4 x i8], ptr, ptr, ptr, ptr, ptr, i32, i32, i32, i32, i32, i32, i32, i32, i64, ptr, ptr, i64, ptr, i64, ptr, ptr, ptr, ptr, i32, i16, i16, i16, i8, i8, i8, i8, i8, i8, i8, i8, i64, [6 x i8] }>
%struct.curl_mimepart = type { ptr, ptr, i32, i32, ptr, ptr, ptr, ptr, ptr, ptr, ptr, ptr, ptr, ptr, ptr, i64, %struct.mime_state, ptr, %struct.mime_encoder_state, i64 }
%struct.mime_state = type { i32, ptr, i64 }
%struct.mime_encoder_state = type { i64, i64, i64, [256 x i8] }
%struct.ssl_config_data = type { %struct.ssl_primary_config, i64, ptr, ptr, ptr, ptr, ptr, ptr, ptr, i16 }
%struct.ssl_primary_config = type { ptr, ptr, ptr, ptr, ptr, ptr, ptr, ptr, ptr, ptr, ptr, ptr, ptr, ptr, i8, i32, i8, i8 }
%struct.ssl_general_config = type { i32 }
%struct.Progress = type { i64, %struct.pgrs_dir, %struct.pgrs_dir, i64, i64, i32, i32, i64, i64, i64, i64, i64, i64, i64, i64, i64, %struct.curltime, %struct.curltime, %struct.curltime, %struct.curltime, %struct.curltime, [6 x i64], [6 x %struct.curltime], i32, i8 }
%struct.pgrs_dir = type { i64, i64, i64, %struct.pgrs_measure }
%struct.pgrs_measure = type { %struct.curltime, i64 }
%struct.UrlState = type { %struct.curltime, i64, i64, %struct.dynbuf, ptr, i64, ptr, i32, i32, i32, ptr, i32, i64, i32, ptr, %struct.digestdata, %struct.digestdata, %struct.auth, %struct.auth, %struct.Curl_async, ptr, i8, %struct.curltime, %struct.Curl_tree, %struct.Curl_llist, [15 x %struct.time_node], ptr, ptr, i64, i64, i64, i64, [32 x i8], i64, ptr, ptr, ptr, %struct.urlpieces, ptr, ptr, ptr, ptr, ptr, i64, %struct.dynbuf, %struct.Curl_llist, [2 x %struct.curl_header], ptr, i32, ptr, ptr, %struct.store_netrc, %struct.dynamically_allocated_data, i8, i8, i8, i8, i32 }
%struct.digestdata = type { ptr, ptr, ptr, ptr, ptr, ptr, i32, i8, i8 }
%struct.auth = type { i64, i64, i64, i8 }
%struct.Curl_async = type { ptr, ptr, ptr, ptr, i32, i32, i8 }
%struct.Curl_tree = type { ptr, ptr, ptr, ptr, %struct.curltime, ptr }
%struct.time_node = type { %struct.Curl_llist_node, %struct.curltime, i32 }
%struct.urlpieces = type { ptr, ptr, ptr, ptr, ptr, ptr, ptr, ptr }
%struct.dynbuf = type { ptr, i64, i64, i64 }
%struct.Curl_llist = type { ptr, ptr, ptr, i64 }
%struct.curl_header = type { ptr, ptr, i64, i64, i32, ptr }
%struct.store_netrc = type { %struct.dynbuf, ptr, i8 }
%struct.dynamically_allocated_data = type { ptr, ptr, ptr, ptr, ptr, ptr, ptr, ptr, ptr, ptr, ptr, ptr, ptr, ptr }
%struct.PureInfo = type { i32, i32, i32, i64, i64, i64, i64, i64, i64, i64, ptr, ptr, i64, i32, %struct.ip_quadruple, i32, ptr, i32, %struct.curl_certinfo, i32, i8 }
%struct.ip_quadruple = type { [46 x i8], [46 x i8], i32, i32 }
%struct.curl_certinfo = type { i32, ptr }
%struct.curl_tlssessioninfo = type { i32, ptr }

; Function Attrs: nounwind uwtable
define internal i32 @httpauth(ptr noundef %0, i1 noundef zeroext %1, i64 noundef %2) #0 {
  %4 = alloca i32, align 4
  %5 = alloca ptr, align 8
  %6 = alloca i8, align 1
  %7 = alloca i64, align 8
  %8 = alloca i32, align 4
  %9 = alloca i8, align 1
  %10 = alloca i8, align 1
  %11 = alloca i32, align 4
  store ptr %0, ptr %5, align 8, !tbaa !24
  %12 = zext i1 %1 to i8
  store i8 %12, ptr %6, align 1, !tbaa !30
  store i64 %2, ptr %7, align 8, !tbaa !21
  %13 = load i64, ptr %7, align 8, !tbaa !21
  %14 = icmp ne i64 %13, 0
  br i1 %14, label %15, label %85

15:                                               ; preds = %3
  call void @llvm.lifetime.start.p0(i64 4, ptr %8) #7
  store i32 0, ptr %8, align 4, !tbaa !22
  call void @llvm.lifetime.start.p0(i64 1, ptr %9) #7
  store i8 0, ptr %9, align 1, !tbaa !30
  call void @llvm.lifetime.start.p0(i64 1, ptr %10) #7
  %16 = load i64, ptr %7, align 8, !tbaa !21
  %17 = and i64 %16, 16
  %18 = icmp ne i64 %17, 0
  %19 = xor i1 %18, true
  %20 = xor i1 %19, true
  %21 = zext i1 %20 to i8
  store i8 %21, ptr %10, align 1, !tbaa !30
  %22 = load i8, ptr %6, align 1, !tbaa !30, !range !98, !noundef !99
  %23 = trunc i8 %22 to i1
  br i1 %23, label %24, label %38

24:                                               ; preds = %15
  %25 = load i8, ptr %10, align 1, !tbaa !30, !range !98, !noundef !99
  %26 = trunc i8 %25 to i1
  %27 = zext i1 %26 to i32
  %28 = load ptr, ptr %5, align 8, !tbaa !24
  %29 = getelementptr inbounds nuw %struct.Curl_easy, ptr %28, i32 0, i32 21
  %30 = getelementptr inbounds nuw %struct.UrlState, ptr %29, i32 0, i32 18
  %31 = getelementptr inbounds nuw %struct.auth, ptr %30, i32 0, i32 3
  %32 = trunc i32 %27 to i8
  %33 = load i8, ptr %31, align 8
  %34 = and i8 %32, 1
  %35 = shl i8 %34, 2
  %36 = and i8 %33, -5
  %37 = or i8 %36, %35
  store i8 %37, ptr %31, align 8
  br label %52

38:                                               ; preds = %15
  %39 = load i8, ptr %10, align 1, !tbaa !30, !range !98, !noundef !99
  %40 = trunc i8 %39 to i1
  %41 = zext i1 %40 to i32
  %42 = load ptr, ptr %5, align 8, !tbaa !24
  %43 = getelementptr inbounds nuw %struct.Curl_easy, ptr %42, i32 0, i32 21
  %44 = getelementptr inbounds nuw %struct.UrlState, ptr %43, i32 0, i32 17
  %45 = getelementptr inbounds nuw %struct.auth, ptr %44, i32 0, i32 3
  %46 = trunc i32 %41 to i8
  %47 = load i8, ptr %45, align 8
  %48 = and i8 %46, 1
  %49 = shl i8 %48, 2
  %50 = and i8 %47, -5
  %51 = or i8 %50, %49
  store i8 %51, ptr %45, align 8
  br label %52

52:                                               ; preds = %38, %24
  %53 = load i64, ptr %7, align 8, !tbaa !21
  %54 = and i64 %53, 16
  %55 = icmp ne i64 %54, 0
  br i1 %55, label %56, label %61

56:                                               ; preds = %52
  %57 = load i64, ptr %7, align 8, !tbaa !21
  %58 = or i64 %57, 2
  store i64 %58, ptr %7, align 8, !tbaa !21
  %59 = load i64, ptr %7, align 8, !tbaa !21
  %60 = and i64 %59, -17
  store i64 %60, ptr %7, align 8, !tbaa !21
  br label %61

61:                                               ; preds = %56, %52
  %62 = load i64, ptr %7, align 8, !tbaa !21
  %63 = and i64 %62, -5
  store i64 %63, ptr %7, align 8, !tbaa !21
  br label %64

64:                                               ; preds = %76, %61
  %65 = load i32, ptr %8, align 4, !tbaa !22
  %66 = icmp slt i32 %65, 31
  br i1 %66, label %67, label %77

67:                                               ; preds = %64
  %68 = load i64, ptr %7, align 8, !tbaa !21
  %69 = load i32, ptr %8, align 4, !tbaa !22
  %70 = add nsw i32 %69, 1
  store i32 %70, ptr %8, align 4, !tbaa !22
  %71 = zext i32 %69 to i64
  %72 = shl i64 1, %71
  %73 = and i64 %68, %72
  %74 = icmp ne i64 %73, 0
  br i1 %74, label %75, label %76

75:                                               ; preds = %67
  store i8 1, ptr %9, align 1, !tbaa !30
  br label %77

76:                                               ; preds = %67
  br label %64, !llvm.loop !248

77:                                               ; preds = %75, %64
  %78 = load i8, ptr %9, align 1, !tbaa !30, !range !98, !noundef !99
  %79 = trunc i8 %78 to i1
  br i1 %79, label %81, label %80

80:                                               ; preds = %77
  store i32 4, ptr %4, align 4
  store i32 1, ptr %11, align 4
  br label %82

81:                                               ; preds = %77
  store i32 0, ptr %11, align 4
  br label %82

82:                                               ; preds = %81, %80
  call void @llvm.lifetime.end.p0(i64 1, ptr %10) #7
  call void @llvm.lifetime.end.p0(i64 1, ptr %9) #7
  call void @llvm.lifetime.end.p0(i64 4, ptr %8) #7
  %83 = load i32, ptr %11, align 4
  switch i32 %83, label %101 [
    i32 0, label %84
    i32 1, label %99
  ]

84:                                               ; preds = %82
  br label %85

85:                                               ; preds = %84, %3
  %86 = load i8, ptr %6, align 1, !tbaa !30, !range !98, !noundef !99
  %87 = trunc i8 %86 to i1
  br i1 %87, label %88, label %93

88:                                               ; preds = %85
  %89 = load i64, ptr %7, align 8, !tbaa !21
  %90 = load ptr, ptr %5, align 8, !tbaa !24
  %91 = getelementptr inbounds nuw %struct.Curl_easy, ptr %90, i32 0, i32 16
  %92 = getelementptr inbounds nuw %struct.UserDefined, ptr %91, i32 0, i32 7
  store i64 %89, ptr %92, align 8, !tbaa !250
  br label %98

93:                                               ; preds = %85
  %94 = load i64, ptr %7, align 8, !tbaa !21
  %95 = load ptr, ptr %5, align 8, !tbaa !24
  %96 = getelementptr inbounds nuw %struct.Curl_easy, ptr %95, i32 0, i32 16
  %97 = getelementptr inbounds nuw %struct.UserDefined, ptr %96, i32 0, i32 6
  store i64 %94, ptr %97, align 8, !tbaa !197
  br label %98

98:                                               ; preds = %93, %88
  store i32 0, ptr %4, align 4
  br label %99

99:                                               ; preds = %98, %82
  %100 = load i32, ptr %4, align 4
  ret i32 %100

101:                                              ; preds = %82
  unreachable
}